target datalayout = "e-m:e-p270:32:32-p271:32:32-p272:64:64-i64:64-i128:128-f80:128-n8:16:32:64-S128"
target triple = "x86_64-pc-linux-gnu"

%struct.expert_field = type { i32, i32 }

@hf_gsm_bssmap_le_apdu_protocol_id = internal global i32 0, align 4
@hf_gsm_bssmap_le_apdu = internal global i32 0, align 4
@ei_gsm_a_bssmap_le_extraneous_data = internal global %struct.expert_field zeroinitializer, align 4
@gsm_bsslap_handle = internal global ptr null, align 8
@g_tree = internal global ptr null, align 8

; Function Attrs: null_pointer_is_valid sspstrong uwtable
define internal zeroext i16 @de_bmaple_apdu(ptr noundef %0, ptr noundef %1, ptr noundef %2, i32 noundef %3, i32 noundef %4, ptr noundef %5, i32 noundef %6) #1 {
  %8 = alloca ptr, align 8
  %9 = alloca ptr, align 8
  %10 = alloca ptr, align 8
  %11 = alloca i32, align 4
  %12 = alloca i32, align 4
  %13 = alloca ptr, align 8
  %14 = alloca i32, align 4
  %15 = alloca i32, align 4
  %16 = alloca i8, align 1
  %17 = alloca ptr, align 8
  store ptr %0, ptr %8, align 8
  store ptr %1, ptr %9, align 8
  store ptr %2, ptr %10, align 8
  store i32 %3, ptr %11, align 4
  store i32 %4, ptr %12, align 4
  store ptr %5, ptr %13, align 8
  store i32 %6, ptr %14, align 4
  call void @llvm.lifetime.start.p0(i64 4, ptr %15) #3
  call void @llvm.lifetime.start.p0(i64 1, ptr %16) #3
  call void @llvm.lifetime.start.p0(i64 8, ptr %17) #3
  %18 = load i32, ptr %11, align 4
  store i32 %18, ptr %15, align 4
  %19 = load ptr, ptr %9, align 8
  %20 = load i32, ptr @hf_gsm_bssmap_le_apdu, align 4
  %21 = load ptr, ptr %8, align 8
  %22 = load i32, ptr %15, align 4
  %23 = load i32, ptr %12, align 4
  %24 = call ptr @proto_tree_add_item(ptr noundef %19, i32 noundef %20, ptr noundef %21, i32 noundef %22, i32 noundef %23, i32 noundef 0)
  %25 = load ptr, ptr %8, align 8
  %26 = load i32, ptr %15, align 4
  %27 = call zeroext i8 @tvb_get_uint8(ptr noundef %25, i32 noundef %26)
  store i8 %27, ptr %16, align 1
  %28 = load ptr, ptr %9, align 8
  %29 = load i32, ptr @hf_gsm_bssmap_le_apdu_protocol_id, align 4
  %30 = load ptr, ptr %8, align 8
  %31 = load i32, ptr %15, align 4
  %32 = call ptr @proto_tree_add_item(ptr noundef %28, i32 noundef %29, ptr noundef %30, i32 noundef %31, i32 noundef 1, i32 noundef 0)
  %33 = load i8, ptr %16, align 1
  %34 = zext i8 %33 to i32
  switch i32 %34, label %51 [
    i32 1, label %35
    i32 2, label %52
    i32 3, label %52
  ]

35:                                               ; preds = %7
  %36 = load ptr, ptr %8, align 8
  %37 = load i32, ptr %15, align 4
  %38 = add i32 %37, 1
  %39 = load i32, ptr %12, align 4
  %40 = sub i32 %39, 1
  %41 = call ptr @tvb_new_subset_length(ptr noundef %36, i32 noundef %38, i32 noundef %40)
  store ptr %41, ptr %17, align 8
  %42 = load ptr, ptr @gsm_bsslap_handle, align 8
  %43 = icmp ne ptr %42, null
  br i1 %43, label %44, label %50

44:                                               ; preds = %35
  %45 = load ptr, ptr @gsm_bsslap_handle, align 8
  %46 = load ptr, ptr %17, align 8
  %47 = load ptr, ptr %10, align 8
  %48 = load ptr, ptr @g_tree, align 8
  %49 = call i32 @call_dissector(ptr noundef %45, ptr noundef %46, ptr noundef %47, ptr noundef %48)
  br label %50

50:                                               ; preds = %44, %35
  br label %52

51:                                               ; preds = %7
  br label %52

52:                                               ; preds = %51, %7, %7, %50
  %53 = load i32, ptr %12, align 4
  %54 = load i32, ptr %15, align 4
  %55 = add i32 %54, %53
  store i32 %55, ptr %15, align 4
  %56 = load i32, ptr %12, align 4
  %57 = load i32, ptr %15, align 4
  %58 = load i32, ptr %11, align 4
  %59 = sub i32 %57, %58
  %60 = icmp ugt i32 %56, %59
  br i1 %60, label %61, label %79

61:                                               ; preds = %52
  %62 = load ptr, ptr %9, align 8
  %63 = load ptr, ptr %10, align 8
  %64 = load ptr, ptr %8, align 8
  %65 = load i32, ptr %15, align 4
  %66 = load i32, ptr %12, align 4
  %67 = load i32, ptr %15, align 4
  %68 = load i32, ptr %11, align 4
  %69 = sub i32 %67, %68
  %70 = sub i32 %66, %69
  %71 = call ptr @proto_tree_add_expert(ptr noundef %62, ptr noundef %63, ptr noundef @ei_gsm_a_bssmap_le_extraneous_data, ptr noundef %64, i32 noundef %65, i32 noundef %70)
  %72 = load i32, ptr %12, align 4
  %73 = load i32, ptr %15, align 4
  %74 = load i32, ptr %11, align 4
  %75 = sub i32 %73, %74
  %76 = sub i32 %72, %75
  %77 = load i32, ptr %15, align 4
  %78 = add i32 %77, %76
  store i32 %78, ptr %15, align 4
  br label %79

79:                                               ; preds = %61, %52
  %80 = load i32, ptr %15, align 4
  %81 = load i32, ptr %11, align 4
  %82 = sub i32 %80, %81
  %83 = trunc i32 %82 to i16
  call void @llvm.lifetime.end.p0(i64 8, ptr %17) #3
  call void @llvm.lifetime.end.p0(i64 1, ptr %16) #3
  call void @llvm.lifetime.end.p0(i64 4, ptr %15) #3
  ret i16 %83
}