; Function Attrs: null_pointer_is_valid sspstrong uwtable
define internal noundef zeroext i16 @de_bmaple_apdu(ptr noundef %0, ptr noundef %1, ptr noundef %2, i32 noundef %3, i32 noundef %4, ptr readnone captures(none) %5, i32 %6) #1 {
  %8 = load i32, ptr @hf_gsm_bssmap_le_apdu, align 4
  %9 = tail call ptr @proto_tree_add_item(ptr noundef %1, i32 noundef %8, ptr noundef %0, i32 noundef %3, i32 noundef %4, i32 noundef 0)
  %10 = tail call zeroext i8 @tvb_get_uint8(ptr noundef %0, i32 noundef %3)
  %11 = load i32, ptr @hf_gsm_bssmap_le_apdu_protocol_id, align 4
  %12 = tail call ptr @proto_tree_add_item(ptr noundef %1, i32 noundef %11, ptr noundef %0, i32 noundef %3, i32 noundef 1, i32 noundef 0)
  %cond = icmp eq i8 %10, 1
  br i1 %cond, label %13, label %21

13:                                               ; preds = %7
  %14 = add i32 %3, 1
  %15 = add i32 %4, -1
  %16 = tail call ptr @tvb_new_subset_length(ptr noundef %0, i32 noundef %14, i32 noundef %15)
  %17 = load ptr, ptr @gsm_bsslap_handle, align 8
  %.not = icmp eq ptr %17, null
  br i1 %.not, label %21, label %18

18:                                               ; preds = %13
  %19 = load ptr, ptr @g_tree, align 8
  %20 = tail call i32 @call_dissector(ptr noundef nonnull %17, ptr noundef %16, ptr noundef %2, ptr noundef %19)
  br label %21

21:                                               ; preds = %18, %13, %7
  %22 = trunc i32 %4 to i16
  ret i16 %22
}